target datalayout = "e-m:e-p270:32:32-p271:32:32-p272:64:64-i64:64-i128:128-f80:128-n8:16:32:64-S128"
target triple = "x86_64-pc-linux-gnu"

%struct.Expr = type { i32 }
%struct.Node = type { i32 }
%struct.FindColsContext = type { i8, ptr, ptr }
%struct.Var = type { %struct.Expr, i32, i16, i32, i32, i32, ptr, i32, i32, i32, i16, i32 }

; Function Attrs: nounwind uwtable
define internal zeroext i1 @find_cols_walker(ptr noundef %0, ptr noundef %1) #0 {
  %3 = alloca i1, align 1
  %4 = alloca ptr, align 8
  %5 = alloca ptr, align 8
  %6 = alloca ptr, align 8
  store ptr %0, ptr %4, align 8
  store ptr %1, ptr %5, align 8
  %7 = load ptr, ptr %4, align 8
  %8 = icmp eq ptr %7, null
  br i1 %8, label %9, label %10

9:                                                ; preds = %2
  store i1 false, ptr %3, align 1
  br label %61

10:                                               ; preds = %2
  %11 = load ptr, ptr %4, align 8
  %12 = getelementptr inbounds nuw %struct.Node, ptr %11, i32 0, i32 0
  %13 = load i32, ptr %12, align 4
  %14 = icmp eq i32 %13, 6
  br i1 %14, label %15, label %44

15:                                               ; preds = %10
  call void @llvm.lifetime.start.p0(i64 8, ptr %6) #9
  %16 = load ptr, ptr %4, align 8
  store ptr %16, ptr %6, align 8
  %17 = load ptr, ptr %5, align 8
  %18 = getelementptr inbounds nuw %struct.FindColsContext, ptr %17, i32 0, i32 0
  %19 = load i8, ptr %18, align 8, !range !4, !noundef !5
  %20 = trunc i8 %19 to i1
  br i1 %20, label %21, label %32

21:                                               ; preds = %15
  %22 = load ptr, ptr %5, align 8
  %23 = getelementptr inbounds nuw %struct.FindColsContext, ptr %22, i32 0, i32 1
  %24 = load ptr, ptr %23, align 8
  %25 = load ptr, ptr %6, align 8
  %26 = getelementptr inbounds nuw %struct.Var, ptr %25, i32 0, i32 2
  %27 = load i16, ptr %26, align 8
  %28 = sext i16 %27 to i32
  %29 = call ptr @bms_add_member(ptr noundef %24, i32 noundef %28)
  %30 = load ptr, ptr %5, align 8
  %31 = getelementptr inbounds nuw %struct.FindColsContext, ptr %30, i32 0, i32 1
  store ptr %29, ptr %31, align 8
  br label %43

32:                                               ; preds = %15
  %33 = load ptr, ptr %5, align 8
  %34 = getelementptr inbounds nuw %struct.FindColsContext, ptr %33, i32 0, i32 2
  %35 = load ptr, ptr %34, align 8
  %36 = load ptr, ptr %6, align 8
  %37 = getelementptr inbounds nuw %struct.Var, ptr %36, i32 0, i32 2
  %38 = load i16, ptr %37, align 8
  %39 = sext i16 %38 to i32
  %40 = call ptr @bms_add_member(ptr noundef %35, i32 noundef %39)
  %41 = load ptr, ptr %5, align 8
  %42 = getelementptr inbounds nuw %struct.FindColsContext, ptr %41, i32 0, i32 2
  store ptr %40, ptr %42, align 8
  br label %43

43:                                               ; preds = %32, %21
  store i1 false, ptr %3, align 1
  call void @llvm.lifetime.end.p0(i64 8, ptr %6) #9
  br label %61

44:                                               ; preds = %10
  %45 = load ptr, ptr %4, align 8
  %46 = getelementptr inbounds nuw %struct.Node, ptr %45, i32 0, i32 0
  %47 = load i32, ptr %46, align 4
  %48 = icmp eq i32 %47, 9
  br i1 %48, label %49, label %57

49:                                               ; preds = %44
  %50 = load ptr, ptr %5, align 8
  %51 = getelementptr inbounds nuw %struct.FindColsContext, ptr %50, i32 0, i32 0
  store i8 1, ptr %51, align 8
  %52 = load ptr, ptr %4, align 8
  %53 = load ptr, ptr %5, align 8
  %54 = call zeroext i1 @expression_tree_walker_impl(ptr noundef %52, ptr noundef @find_cols_walker, ptr noundef %53)
  %55 = load ptr, ptr %5, align 8
  %56 = getelementptr inbounds nuw %struct.FindColsContext, ptr %55, i32 0, i32 0
  store i8 0, ptr %56, align 8
  store i1 false, ptr %3, align 1
  br label %61

57:                                               ; preds = %44
  %58 = load ptr, ptr %4, align 8
  %59 = load ptr, ptr %5, align 8
  %60 = call zeroext i1 @expression_tree_walker_impl(ptr noundef %58, ptr noundef @find_cols_walker, ptr noundef %59)
  store i1 %60, ptr %3, align 1
  br label %61

61:                                               ; preds = %57, %49, %43, %9
  %62 = load i1, ptr %3, align 1
  ret i1 %62
}