; Function Attrs: nounwind uwtable
define internal zeroext i1 @find_cols_walker(ptr noundef %0, ptr noundef %1) #2 {
  %3 = icmp eq ptr %0, null
  br i1 %3, label %24, label %4

4:                                                ; preds = %2
  %5 = load i32, ptr %0, align 4
  switch i32 %5, label %22 [
    i32 6, label %6
    i32 9, label %20
  ]

6:                                                ; preds = %4
  %7 = load i8, ptr %1, align 8, !range !6, !noundef !7
  %8 = trunc nuw i8 %7 to i1
  %9 = getelementptr inbounds nuw i8, ptr %0, i64 8
  %10 = load i16, ptr %9, align 8
  %11 = sext i16 %10 to i32
  br i1 %8, label %12, label %16

12:                                               ; preds = %6
  %13 = getelementptr inbounds nuw i8, ptr %1, i64 8
  %14 = load ptr, ptr %13, align 8
  %15 = tail call ptr @bms_add_member(ptr noundef %14, i32 noundef %11) #12
  store ptr %15, ptr %13, align 8
  br label %24

16:                                               ; preds = %6
  %17 = getelementptr inbounds nuw i8, ptr %1, i64 16
  %18 = load ptr, ptr %17, align 8
  %19 = tail call ptr @bms_add_member(ptr noundef %18, i32 noundef %11) #12
  store ptr %19, ptr %17, align 8
  br label %24

20:                                               ; preds = %4
  store i8 1, ptr %1, align 8
  %21 = tail call zeroext i1 @expression_tree_walker_impl(ptr noundef nonnull %0, ptr noundef nonnull @find_cols_walker, ptr noundef nonnull %1) #12
  store i8 0, ptr %1, align 8
  br label %24

22:                                               ; preds = %4
  %23 = tail call zeroext i1 @expression_tree_walker_impl(ptr noundef nonnull %0, ptr noundef nonnull @find_cols_walker, ptr noundef %1) #12
  br label %24

24:                                               ; preds = %12, %16, %2, %22, %20
  %.0 = phi i1 [ false, %20 ], [ %23, %22 ], [ false, %2 ], [ false, %16 ], [ false, %12 ]
  ret i1 %.0
}